#include <math.h>
#include <stdio.h>
#include <stdlib.h>
#include <string.h>


int main(){
	int n,i,k,j;
	double x[100],s[100]={0},a,S[100];
	scanf("%d",&k);
	for(i=0;i<k;i++)
	{
        scanf("%d",&n);
		a=0;
        for(j=0;j<n;j++)
		{
          scanf("%lf",&x[j]);
          a+=x[j];
		}
        for(j=0;j<n;j++)
		{
	    s[i]+=pow((x[j]-a/n),2);
		}
	
	    S[i]=sqrt(s[i]/n);
	}
	for(i=0;i<k;i++)
	{
	    printf("%.5lf\n",S[i]);
	}



return 0;
}